target datalayout = "e-m:e-p270:32:32-p271:32:32-p272:64:64-i64:64-i128:128-f80:128-n8:16:32:64-S128"
target triple = "x86_64-pc-linux-gnu"

%struct.evdns_server_port = type { i32, i32, i8, i8, ptr, ptr, %struct.event, ptr, ptr, ptr, %struct.client_list, i32, i32, %struct.timeval, ptr }
%struct.event = type { %struct.event_callback, %union.anon.0, i32, i16, i16, ptr, %union.anon.2, %struct.timeval }
%struct.event_callback = type { %struct.anon, i16, i8, i8, %union.anon, ptr }
%struct.anon = type { ptr, ptr }
%union.anon = type { ptr }
%union.anon.0 = type { %struct.anon.1 }
%struct.anon.1 = type { ptr, ptr }
%union.anon.2 = type { %struct.anon.3 }
%struct.anon.3 = type { %struct.anon.4, %struct.timeval }
%struct.anon.4 = type { ptr, ptr }
%struct.client_list = type { ptr }
%struct.timeval = type { i64, i64 }
%struct.client_tcp_connection = type { %struct.anon.12, %struct.tcp_connection, ptr }
%struct.anon.12 = type { ptr, ptr }
%struct.tcp_connection = type { ptr, i32, i16 }
%struct.server_request = type { ptr, ptr, i16, ptr, ptr, %struct.sockaddr_storage, i32, i16, i32, i32, i32, ptr, ptr, ptr, ptr, i64, %struct.evdns_server_request }
%struct.sockaddr_storage = type { i16, [118 x i8], i64 }
%struct.evdns_server_request = type { i32, i32, ptr }
%union.__CONST_SOCKADDR_ARG = type { ptr }

@.str.39 = private unnamed_addr constant [49 x i8] c"Failed to send reply to request %p for client %p\00", align 1

; Function Attrs: nounwind uwtable
define internal void @evdns_tcp_disconnect(ptr noundef %0) #0 {
  %2 = alloca ptr, align 8
  store ptr %0, ptr %2, align 8
  %3 = load ptr, ptr %2, align 8
  %4 = icmp ne ptr %3, null
  br i1 %4, label %6, label %5

5:                                                ; preds = %1
  br label %21

6:                                                ; preds = %1
  %7 = load ptr, ptr %2, align 8
  %8 = getelementptr inbounds nuw %struct.tcp_connection, ptr %7, i32 0, i32 1
  store i32 0, ptr %8, align 8
  %9 = load ptr, ptr %2, align 8
  %10 = getelementptr inbounds nuw %struct.tcp_connection, ptr %9, i32 0, i32 2
  store i16 0, ptr %10, align 4
  %11 = load ptr, ptr %2, align 8
  %12 = getelementptr inbounds nuw %struct.tcp_connection, ptr %11, i32 0, i32 0
  %13 = load ptr, ptr %12, align 8
  %14 = icmp ne ptr %13, null
  br i1 %14, label %15, label %21

15:                                               ; preds = %6
  %16 = load ptr, ptr %2, align 8
  %17 = getelementptr inbounds nuw %struct.tcp_connection, ptr %16, i32 0, i32 0
  %18 = load ptr, ptr %17, align 8
  call void @bufferevent_free(ptr noundef %18)
  %19 = load ptr, ptr %2, align 8
  %20 = getelementptr inbounds nuw %struct.tcp_connection, ptr %19, i32 0, i32 0
  store ptr null, ptr %20, align 8
  br label %21

21:                                               ; preds = %5, %15, %6
  ret void
}

; Function Attrs: nounwind uwtable
define internal i32 @evdns_remove_tcp_client(ptr noundef %0, ptr noundef %1) #0 {
  %3 = alloca i32, align 4
  %4 = alloca ptr, align 8
  %5 = alloca ptr, align 8
  store ptr %0, ptr %4, align 8
  store ptr %1, ptr %5, align 8
  %6 = load ptr, ptr %4, align 8
  %7 = icmp ne ptr %6, null
  br i1 %7, label %8, label %11

8:                                                ; preds = %2
  %9 = load ptr, ptr %5, align 8
  %10 = icmp ne ptr %9, null
  br i1 %10, label %12, label %11

11:                                               ; preds = %8, %2
  br label %51

12:                                               ; preds = %8
  %13 = load ptr, ptr %5, align 8
  %14 = getelementptr inbounds nuw %struct.client_tcp_connection, ptr %13, i32 0, i32 1
  call void @evdns_tcp_disconnect(ptr noundef %14)
  br label %15

15:                                               ; preds = %12
  %16 = load ptr, ptr %5, align 8
  %17 = getelementptr inbounds nuw %struct.client_tcp_connection, ptr %16, i32 0, i32 0
  %18 = getelementptr inbounds nuw %struct.anon.12, ptr %17, i32 0, i32 0
  %19 = load ptr, ptr %18, align 8
  %20 = icmp ne ptr %19, null
  br i1 %20, label %21, label %32

21:                                               ; preds = %15
  %22 = load ptr, ptr %5, align 8
  %23 = getelementptr inbounds nuw %struct.client_tcp_connection, ptr %22, i32 0, i32 0
  %24 = getelementptr inbounds nuw %struct.anon.12, ptr %23, i32 0, i32 1
  %25 = load ptr, ptr %24, align 8
  %26 = load ptr, ptr %5, align 8
  %27 = getelementptr inbounds nuw %struct.client_tcp_connection, ptr %26, i32 0, i32 0
  %28 = getelementptr inbounds nuw %struct.anon.12, ptr %27, i32 0, i32 0
  %29 = load ptr, ptr %28, align 8
  %30 = getelementptr inbounds nuw %struct.client_tcp_connection, ptr %29, i32 0, i32 0
  %31 = getelementptr inbounds nuw %struct.anon.12, ptr %30, i32 0, i32 1
  store ptr %25, ptr %31, align 8
  br label %32

32:                                               ; preds = %21, %15
  %33 = load ptr, ptr %5, align 8
  %34 = getelementptr inbounds nuw %struct.client_tcp_connection, ptr %33, i32 0, i32 0
  %35 = getelementptr inbounds nuw %struct.anon.12, ptr %34, i32 0, i32 0
  %36 = load ptr, ptr %35, align 8
  %37 = load ptr, ptr %5, align 8
  %38 = getelementptr inbounds nuw %struct.client_tcp_connection, ptr %37, i32 0, i32 0
  %39 = getelementptr inbounds nuw %struct.anon.12, ptr %38, i32 0, i32 1
  %40 = load ptr, ptr %39, align 8
  store ptr %36, ptr %40, align 8
  br label %41

41:                                               ; preds = %32
  %42 = load ptr, ptr %5, align 8
  call void @event_mm_free_(ptr noundef %42)
  %43 = load ptr, ptr %4, align 8
  %44 = getelementptr inbounds nuw %struct.evdns_server_port, ptr %43, i32 0, i32 11
  %45 = load i32, ptr %44, align 8
  %46 = add i32 %45, -1
  store i32 %46, ptr %44, align 8
  %47 = load ptr, ptr %4, align 8
  %48 = getelementptr inbounds nuw %struct.evdns_server_port, ptr %47, i32 0, i32 1
  %49 = load i32, ptr %48, align 4
  %50 = add nsw i32 %49, -1
  store i32 %50, ptr %48, align 4
  store i32 0, ptr %3, align 4
  br label %52

51:                                               ; preds = %11
  store i32 -1, ptr %3, align 4
  br label %52

52:                                               ; preds = %51, %41
  %53 = load i32, ptr %3, align 4
  ret i32 %53
}

; Function Attrs: inlinehint nounwind uwtable
define internal zeroext i16 @__bswap_16(i16 noundef zeroext %0) #5 {
  %2 = alloca i16, align 2
  store i16 %0, ptr %2, align 2
  %3 = load i16, ptr %2, align 2
  %4 = zext i16 %3 to i32
  %5 = ashr i32 %4, 8
  %6 = and i32 %5, 255
  %7 = load i16, ptr %2, align 2
  %8 = zext i16 %7 to i32
  %9 = and i32 %8, 255
  %10 = shl i32 %9, 8
  %11 = or i32 %6, %10
  %12 = trunc i32 %11 to i16
  ret i16 %12
}

; Function Attrs: nounwind uwtable
define internal i32 @server_send_response(ptr noundef %0, ptr noundef %1) #0 {
  %3 = alloca i32, align 4
  %4 = alloca ptr, align 8
  %5 = alloca ptr, align 8
  %6 = alloca i16, align 2
  %7 = alloca ptr, align 8
  %8 = alloca i32, align 4
  %9 = alloca i32, align 4
  %10 = alloca %union.__CONST_SOCKADDR_ARG, align 8
  store ptr %0, ptr %4, align 8
  store ptr %1, ptr %5, align 8
  call void @llvm.lifetime.start.p0(i64 2, ptr %6) #10
  store i16 0, ptr %6, align 2
  call void @llvm.lifetime.start.p0(i64 8, ptr %7) #10
  store ptr null, ptr %7, align 8
  %11 = load ptr, ptr %5, align 8
  %12 = getelementptr inbounds nuw %struct.server_request, ptr %11, i32 0, i32 4
  %13 = load ptr, ptr %12, align 8
  %14 = icmp ne ptr %13, null
  br i1 %14, label %15, label %53

15:                                               ; preds = %2
  %16 = load ptr, ptr %5, align 8
  %17 = getelementptr inbounds nuw %struct.server_request, ptr %16, i32 0, i32 4
  %18 = load ptr, ptr %17, align 8
  %19 = getelementptr inbounds nuw %struct.client_tcp_connection, ptr %18, i32 0, i32 1
  %20 = getelementptr inbounds nuw %struct.tcp_connection, ptr %19, i32 0, i32 0
  %21 = load ptr, ptr %20, align 8
  store ptr %21, ptr %7, align 8
  br label %22

22:                                               ; preds = %15
  br label %23

23:                                               ; preds = %22
  br label %24

24:                                               ; preds = %23
  br label %25

25:                                               ; preds = %24
  br label %26

26:                                               ; preds = %25
  br label %27

27:                                               ; preds = %26
  %28 = load ptr, ptr %5, align 8
  %29 = getelementptr inbounds nuw %struct.server_request, ptr %28, i32 0, i32 15
  %30 = load i64, ptr %29, align 8
  %31 = trunc i64 %30 to i16
  %32 = call zeroext i16 @__bswap_16(i16 noundef zeroext %31)
  store i16 %32, ptr %6, align 2
  %33 = load ptr, ptr %7, align 8
  %34 = call i32 @bufferevent_write(ptr noundef %33, ptr noundef %6, i64 noundef 2)
  %35 = icmp ne i32 %34, 0
  br i1 %35, label %36, label %37

36:                                               ; preds = %27
  br label %75

37:                                               ; preds = %27
  %38 = load ptr, ptr %7, align 8
  %39 = load ptr, ptr %5, align 8
  %40 = getelementptr inbounds nuw %struct.server_request, ptr %39, i32 0, i32 14
  %41 = load ptr, ptr %40, align 8
  %42 = load ptr, ptr %5, align 8
  %43 = getelementptr inbounds nuw %struct.server_request, ptr %42, i32 0, i32 15
  %44 = load i64, ptr %43, align 8
  %45 = call i32 @bufferevent_write(ptr noundef %38, ptr noundef %41, i64 noundef %44)
  %46 = icmp ne i32 %45, 0
  br i1 %46, label %47, label %48

47:                                               ; preds = %37
  br label %75

48:                                               ; preds = %37
  %49 = load ptr, ptr %5, align 8
  %50 = getelementptr inbounds nuw %struct.server_request, ptr %49, i32 0, i32 15
  %51 = load i64, ptr %50, align 8
  %52 = trunc i64 %51 to i32
  store i32 %52, ptr %3, align 4
  store i32 1, ptr %8, align 4
  br label %85

53:                                               ; preds = %2
  call void @llvm.lifetime.start.p0(i64 4, ptr %9) #10
  %54 = load ptr, ptr %4, align 8
  %55 = getelementptr inbounds nuw %struct.evdns_server_port, ptr %54, i32 0, i32 0
  %56 = load i32, ptr %55, align 8
  %57 = load ptr, ptr %5, align 8
  %58 = getelementptr inbounds nuw %struct.server_request, ptr %57, i32 0, i32 14
  %59 = load ptr, ptr %58, align 8
  %60 = load ptr, ptr %5, align 8
  %61 = getelementptr inbounds nuw %struct.server_request, ptr %60, i32 0, i32 15
  %62 = load i64, ptr %61, align 8
  %63 = trunc i64 %62 to i32
  %64 = sext i32 %63 to i64
  %65 = load ptr, ptr %5, align 8
  %66 = getelementptr inbounds nuw %struct.server_request, ptr %65, i32 0, i32 5
  store ptr %66, ptr %10, align 8
  %67 = load ptr, ptr %5, align 8
  %68 = getelementptr inbounds nuw %struct.server_request, ptr %67, i32 0, i32 6
  %69 = load i32, ptr %68, align 8
  %70 = getelementptr inbounds nuw %union.__CONST_SOCKADDR_ARG, ptr %10, i32 0, i32 0
  %71 = load ptr, ptr %70, align 8
  %72 = call i64 @sendto(i32 noundef %56, ptr noundef %59, i64 noundef %64, i32 noundef 0, ptr %71, i32 noundef %69)
  %73 = trunc i64 %72 to i32
  store i32 %73, ptr %9, align 4
  %74 = load i32, ptr %9, align 4
  store i32 %74, ptr %3, align 4
  store i32 1, ptr %8, align 4
  call void @llvm.lifetime.end.p0(i64 4, ptr %9) #10
  br label %85

75:                                               ; preds = %47, %36
  %76 = load ptr, ptr %5, align 8
  %77 = load ptr, ptr %5, align 8
  %78 = getelementptr inbounds nuw %struct.server_request, ptr %77, i32 0, i32 4
  %79 = load ptr, ptr %78, align 8
  call void (i32, ptr, ...) @evdns_log_(i32 noundef 2, ptr noundef @.str.39, ptr noundef %76, ptr noundef %79)
  %80 = load ptr, ptr %4, align 8
  %81 = load ptr, ptr %5, align 8
  %82 = getelementptr inbounds nuw %struct.server_request, ptr %81, i32 0, i32 4
  %83 = load ptr, ptr %82, align 8
  %84 = call i32 @evdns_remove_tcp_client(ptr noundef %80, ptr noundef %83)
  store i32 -1, ptr %3, align 4
  store i32 1, ptr %8, align 4
  br label %85

85:                                               ; preds = %75, %53, %48
  call void @llvm.lifetime.end.p0(i64 8, ptr %7) #10
  call void @llvm.lifetime.end.p0(i64 2, ptr %6) #10
  %86 = load i32, ptr %3, align 4
  ret i32 %86
}