; Function Attrs: nounwind uwtable
define internal fastcc i32 @server_send_response(ptr noundef captures(address_is_null) %0, ptr noundef %1) unnamed_addr #2 {
  %3 = alloca i16, align 2
  call void @llvm.lifetime.start.p0(i64 2, ptr nonnull %3) #21
  %4 = getelementptr inbounds nuw i8, ptr %1, i64 32
  %5 = load ptr, ptr %4, align 8
  %.not = icmp eq ptr %5, null
  br i1 %.not, label %21, label %6

6:                                                ; preds = %2
  %7 = getelementptr inbounds nuw i8, ptr %5, i64 16
  %8 = load ptr, ptr %7, align 8
  %9 = getelementptr inbounds nuw i8, ptr %1, i64 224
  %10 = load i64, ptr %9, align 8
  %11 = trunc i64 %10 to i16
  %rev.i = tail call noundef i16 @llvm.bswap.i16(i16 %11)
  store i16 %rev.i, ptr %3, align 2
  %12 = call i32 @bufferevent_write(ptr noundef %8, ptr noundef nonnull %3, i64 noundef 2) #21
  %.not19 = icmp eq i32 %12, 0
  br i1 %.not19, label %13, label %33

13:                                               ; preds = %6
  %14 = getelementptr inbounds nuw i8, ptr %1, i64 216
  %15 = load ptr, ptr %14, align 8
  %16 = load i64, ptr %9, align 8
  %17 = call i32 @bufferevent_write(ptr noundef %8, ptr noundef %15, i64 noundef %16) #21
  %.not20 = icmp eq i32 %17, 0
  br i1 %.not20, label %18, label %33

18:                                               ; preds = %13
  %19 = load i64, ptr %9, align 8
  %20 = trunc i64 %19 to i32
  br label %evdns_remove_tcp_client.exit

21:                                               ; preds = %2
  %22 = load i32, ptr %0, align 8
  %23 = getelementptr inbounds nuw i8, ptr %1, i64 216
  %24 = load ptr, ptr %23, align 8
  %25 = getelementptr inbounds nuw i8, ptr %1, i64 224
  %26 = load i64, ptr %25, align 8
  %sext = shl i64 %26, 32
  %27 = ashr exact i64 %sext, 32
  %28 = getelementptr inbounds nuw i8, ptr %1, i64 40
  %29 = getelementptr inbounds nuw i8, ptr %1, i64 168
  %30 = load i32, ptr %29, align 8
  %31 = tail call i64 @sendto(i32 noundef %22, ptr noundef %24, i64 noundef %27, i32 noundef 0, ptr nonnull %28, i32 noundef %30) #21
  %32 = trunc i64 %31 to i32
  br label %evdns_remove_tcp_client.exit

33:                                               ; preds = %13, %6
  %34 = load ptr, ptr %4, align 8
  call void (i32, ptr, ...) @evdns_log_(i32 noundef 2, ptr noundef nonnull @.str.39, ptr noundef nonnull %1, ptr noundef %34)
  %35 = load ptr, ptr %4, align 8
  %36 = icmp ne ptr %0, null
  %37 = icmp ne ptr %35, null
  %or.cond.i = and i1 %36, %37
  br i1 %or.cond.i, label %38, label %evdns_remove_tcp_client.exit

38:                                               ; preds = %33
  %39 = getelementptr inbounds nuw i8, ptr %35, i64 16
  %40 = getelementptr inbounds nuw i8, ptr %35, i64 24
  store i32 0, ptr %40, align 8
  %41 = getelementptr inbounds nuw i8, ptr %35, i64 28
  store i16 0, ptr %41, align 4
  %42 = load ptr, ptr %39, align 8
  %.not.i.i = icmp eq ptr %42, null
  br i1 %.not.i.i, label %evdns_tcp_disconnect.exit.i, label %43

43:                                               ; preds = %38
  call void @bufferevent_free(ptr noundef nonnull %42) #21
  store ptr null, ptr %39, align 8
  br label %evdns_tcp_disconnect.exit.i

evdns_tcp_disconnect.exit.i:                      ; preds = %43, %38
  %44 = load ptr, ptr %35, align 8
  %.not.i = icmp eq ptr %44, null
  %.phi.trans.insert.i = getelementptr inbounds nuw i8, ptr %35, i64 8
  %.pre15.i = load ptr, ptr %.phi.trans.insert.i, align 8
  br i1 %.not.i, label %evdns_tcp_disconnect.exit._crit_edge.i, label %45

45:                                               ; preds = %evdns_tcp_disconnect.exit.i
  %46 = getelementptr inbounds nuw i8, ptr %44, i64 8
  store ptr %.pre15.i, ptr %46, align 8
  %.pre.i = load ptr, ptr %35, align 8
  br label %evdns_tcp_disconnect.exit._crit_edge.i

evdns_tcp_disconnect.exit._crit_edge.i:           ; preds = %45, %evdns_tcp_disconnect.exit.i
  %47 = phi ptr [ %.pre.i, %45 ], [ null, %evdns_tcp_disconnect.exit.i ]
  store ptr %47, ptr %.pre15.i, align 8
  call void @event_mm_free_(ptr noundef nonnull %35) #21
  %48 = getelementptr inbounds nuw i8, ptr %0, i64 184
  %49 = load i32, ptr %48, align 8
  %50 = add i32 %49, -1
  store i32 %50, ptr %48, align 8
  %51 = getelementptr inbounds nuw i8, ptr %0, i64 4
  %52 = load i32, ptr %51, align 4
  %53 = add nsw i32 %52, -1
  store i32 %53, ptr %51, align 4
  br label %evdns_remove_tcp_client.exit

evdns_remove_tcp_client.exit:                     ; preds = %evdns_tcp_disconnect.exit._crit_edge.i, %33, %21, %18
  %.0 = phi i32 [ %20, %18 ], [ %32, %21 ], [ -1, %33 ], [ -1, %evdns_tcp_disconnect.exit._crit_edge.i ]
  call void @llvm.lifetime.end.p0(i64 2, ptr nonnull %3) #21
  ret i32 %.0
}